target datalayout = "e-m:e-p270:32:32-p271:32:32-p272:64:64-i64:64-i128:128-f80:128-n8:16:32:64-S128"
target triple = "x86_64-pc-linux-gnu"

; Function Attrs: nounwind uwtable
define internal void @Int32_To_Float32(ptr noundef %0, i32 noundef %1, ptr noundef %2, i32 noundef %3, i32 noundef %4, ptr noundef %5) #0 {
  %7 = alloca ptr, align 8
  %8 = alloca i32, align 4
  %9 = alloca ptr, align 8
  %10 = alloca i32, align 4
  %11 = alloca i32, align 4
  %12 = alloca ptr, align 8
  %13 = alloca ptr, align 8
  %14 = alloca ptr, align 8
  store ptr %0, ptr %7, align 8, !tbaa !70
  store i32 %1, ptr %8, align 4, !tbaa !71
  store ptr %2, ptr %9, align 8, !tbaa !70
  store i32 %3, ptr %10, align 4, !tbaa !71
  store i32 %4, ptr %11, align 4, !tbaa !71
  store ptr %5, ptr %12, align 8, !tbaa !73
  call void @llvm.lifetime.start.p0(i64 8, ptr %13) #4
  %15 = load ptr, ptr %9, align 8, !tbaa !70
  store ptr %15, ptr %13, align 8, !tbaa !77
  call void @llvm.lifetime.start.p0(i64 8, ptr %14) #4
  %16 = load ptr, ptr %7, align 8, !tbaa !70
  store ptr %16, ptr %14, align 8, !tbaa !75
  br label %17

17:                                               ; preds = %21, %6
  %18 = load i32, ptr %11, align 4, !tbaa !71
  %19 = add i32 %18, -1
  store i32 %19, ptr %11, align 4, !tbaa !71
  %20 = icmp ne i32 %18, 0
  br i1 %20, label %21, label %36

21:                                               ; preds = %17
  %22 = load ptr, ptr %13, align 8, !tbaa !77
  %23 = load i32, ptr %22, align 4, !tbaa !71
  %24 = sitofp i32 %23 to double
  %25 = fmul double %24, 0x3E00000000000000
  %26 = fptrunc double %25 to float
  %27 = load ptr, ptr %14, align 8, !tbaa !75
  store float %26, ptr %27, align 4, !tbaa !79
  %28 = load i32, ptr %10, align 4, !tbaa !71
  %29 = load ptr, ptr %13, align 8, !tbaa !77
  %30 = sext i32 %28 to i64
  %31 = getelementptr inbounds i32, ptr %29, i64 %30
  store ptr %31, ptr %13, align 8, !tbaa !77
  %32 = load i32, ptr %8, align 4, !tbaa !71
  %33 = load ptr, ptr %14, align 8, !tbaa !75
  %34 = sext i32 %32 to i64
  %35 = getelementptr inbounds float, ptr %33, i64 %34
  store ptr %35, ptr %14, align 8, !tbaa !75
  br label %17, !llvm.loop !110

36:                                               ; preds = %17
  call void @llvm.lifetime.end.p0(i64 8, ptr %14) #4
  call void @llvm.lifetime.end.p0(i64 8, ptr %13) #4
  ret void
}